; Function Attrs: nounwind uwtable
define nonnull ptr @l_Lean_MessageData_isDeprecationWarning___boxed(ptr noundef %0) local_unnamed_addr #0 {
  %2 = load ptr, ptr @l_Lean_MessageData_isDeprecationWarning___closed__1, align 8, !tbaa !4
  %3 = tail call zeroext i8 @l_Lean_MessageData_hasTag(ptr noundef %2, ptr noundef %0) #4
  %4 = zext i8 %3 to i64
  %5 = shl nuw nsw i64 %4, 1
  %6 = or disjoint i64 %5, 1
  %7 = inttoptr i64 %6 to ptr
  ret ptr %7
}